target datalayout = "e-m:e-p270:32:32-p271:32:32-p272:64:64-i64:64-f80:128-n8:16:32:64-S128"
target triple = "x86_64-pc-linux-gnu"

@.str = private unnamed_addr constant [3 x i8] c"%d\00", align 1
@.str.1 = private unnamed_addr constant [3 x i8] c"%u\00", align 1
@.str.2 = private unnamed_addr constant [4 x i8] c",%u\00", align 1

; Function Attrs: noinline nounwind uwtable
define dso_local i32 @main() #0 {
  %1 = alloca i32, align 4
  %2 = alloca i32*, align 8
  %3 = alloca i32*, align 8
  %4 = alloca i32, align 4
  %5 = alloca i32, align 4
  %6 = alloca i32, align 4
  %7 = alloca i32, align 4
  %8 = alloca i32, align 4
  %9 = alloca i32, align 4
  %10 = alloca double, align 8
  %11 = alloca double, align 8
  %12 = alloca double*, align 8
  %13 = alloca double, align 8
  store i32 0, i32* %1, align 4
  store i32 0, i32* %6, align 4
  store i32 0, i32* %8, align 4
  store double 0.000000e+00, double* %10, align 8
  store double 0.000000e+00, double* %11, align 8
  store double 0.000000e+00, double* %13, align 8
  %14 = call i32 (i8*, ...) @__isoc99_scanf(i8* getelementptr inbounds ([3 x i8], [3 x i8]* @.str, i64 0, i64 0), i32* %4)
  %15 = load i32, i32* %4, align 4
  %16 = sext i32 %15 to i64
  %17 = mul i64 4, %16
  %18 = call noalias i8* @malloc(i64 %17) #3
  %19 = bitcast i8* %18 to i32*
  store i32* %19, i32** %2, align 8
  %20 = load i32, i32* %4, align 4
  %21 = sext i32 %20 to i64
  %22 = mul i64 8, %21
  %23 = call noalias i8* @malloc(i64 %22) #3
  %24 = bitcast i8* %23 to double*
  store double* %24, double** %12, align 8
  %25 = load i32, i32* %4, align 4
  %26 = sext i32 %25 to i64
  %27 = mul i64 4, %26
  %28 = call noalias i8* @malloc(i64 %27) #3
  %29 = bitcast i8* %28 to i32*
  store i32* %29, i32** %3, align 8
  store i32 0, i32* %5, align 4
  br label %30

30:                                               ; preds = %48, %0
  %31 = load i32, i32* %5, align 4
  %32 = load i32, i32* %4, align 4
  %33 = icmp slt i32 %31, %32
  br i1 %33, label %34, label %51

34:                                               ; preds = %30
  %35 = load i32*, i32** %2, align 8
  %36 = load i32, i32* %5, align 4
  %37 = sext i32 %36 to i64
  %38 = getelementptr inbounds i32, i32* %35, i64 %37
  %39 = call i32 (i8*, ...) @__isoc99_scanf(i8* getelementptr inbounds ([3 x i8], [3 x i8]* @.str.1, i64 0, i64 0), i32* %38)
  %40 = load double, double* %11, align 8
  %41 = load i32*, i32** %2, align 8
  %42 = load i32, i32* %5, align 4
  %43 = sext i32 %42 to i64
  %44 = getelementptr inbounds i32, i32* %41, i64 %43
  %45 = load i32, i32* %44, align 4
  %46 = uitofp i32 %45 to double
  %47 = fadd double %40, %46
  store double %47, double* %11, align 8
  br label %48

48:                                               ; preds = %34
  %49 = load i32, i32* %5, align 4
  %50 = add nsw i32 %49, 1
  store i32 %50, i32* %5, align 4
  br label %30

51:                                               ; preds = %30
  %52 = load double, double* %11, align 8
  %53 = load i32, i32* %4, align 4
  %54 = sitofp i32 %53 to double
  %55 = fdiv double %52, %54
  store double %55, double* %10, align 8
  store i32 0, i32* %5, align 4
  br label %56

56:                                               ; preds = %97, %51
  %57 = load i32, i32* %5, align 4
  %58 = load i32, i32* %4, align 4
  %59 = icmp slt i32 %57, %58
  br i1 %59, label %60, label %100

60:                                               ; preds = %56
  %61 = load double, double* %10, align 8
  %62 = load i32*, i32** %2, align 8
  %63 = load i32, i32* %5, align 4
  %64 = sext i32 %63 to i64
  %65 = getelementptr inbounds i32, i32* %62, i64 %64
  %66 = load i32, i32* %65, align 4
  %67 = uitofp i32 %66 to double
  %68 = fsub double %61, %67
  %69 = fcmp oge double %68, 0.000000e+00
  br i1 %69, label %70, label %83

70:                                               ; preds = %60
  %71 = load double, double* %10, align 8
  %72 = load i32*, i32** %2, align 8
  %73 = load i32, i32* %5, align 4
  %74 = sext i32 %73 to i64
  %75 = getelementptr inbounds i32, i32* %72, i64 %74
  %76 = load i32, i32* %75, align 4
  %77 = uitofp i32 %76 to double
  %78 = fsub double %71, %77
  %79 = load double*, double** %12, align 8
  %80 = load i32, i32* %5, align 4
  %81 = sext i32 %80 to i64
  %82 = getelementptr inbounds double, double* %79, i64 %81
  store double %78, double* %82, align 8
  br label %96

83:                                               ; preds = %60
  %84 = load i32*, i32** %2, align 8
  %85 = load i32, i32* %5, align 4
  %86 = sext i32 %85 to i64
  %87 = getelementptr inbounds i32, i32* %84, i64 %86
  %88 = load i32, i32* %87, align 4
  %89 = uitofp i32 %88 to double
  %90 = load double, double* %10, align 8
  %91 = fsub double %89, %90
  %92 = load double*, double** %12, align 8
  %93 = load i32, i32* %5, align 4
  %94 = sext i32 %93 to i64
  %95 = getelementptr inbounds double, double* %92, i64 %94
  store double %91, double* %95, align 8
  br label %96

96:                                               ; preds = %83, %70
  br label %97

97:                                               ; preds = %96
  %98 = load i32, i32* %5, align 4
  %99 = add nsw i32 %98, 1
  store i32 %99, i32* %5, align 4
  br label %56

100:                                              ; preds = %56
  store i32 0, i32* %5, align 4
  br label %101

101:                                              ; preds = %120, %100
  %102 = load i32, i32* %5, align 4
  %103 = load i32, i32* %4, align 4
  %104 = icmp slt i32 %102, %103
  br i1 %104, label %105, label %123

105:                                              ; preds = %101
  %106 = load double, double* %13, align 8
  %107 = load double*, double** %12, align 8
  %108 = load i32, i32* %5, align 4
  %109 = sext i32 %108 to i64
  %110 = getelementptr inbounds double, double* %107, i64 %109
  %111 = load double, double* %110, align 8
  %112 = fcmp olt double %106, %111
  br i1 %112, label %113, label %119

113:                                              ; preds = %105
  %114 = load double*, double** %12, align 8
  %115 = load i32, i32* %5, align 4
  %116 = sext i32 %115 to i64
  %117 = getelementptr inbounds double, double* %114, i64 %116
  %118 = load double, double* %117, align 8
  store double %118, double* %13, align 8
  br label %119

119:                                              ; preds = %113, %105
  br label %120

120:                                              ; preds = %119
  %121 = load i32, i32* %5, align 4
  %122 = add nsw i32 %121, 1
  store i32 %122, i32* %5, align 4
  br label %101

123:                                              ; preds = %101
  store i32 0, i32* %5, align 4
  br label %124

124:                                              ; preds = %149, %123
  %125 = load i32, i32* %5, align 4
  %126 = load i32, i32* %4, align 4
  %127 = icmp slt i32 %125, %126
  br i1 %127, label %128, label %152

128:                                              ; preds = %124
  %129 = load double*, double** %12, align 8
  %130 = load i32, i32* %5, align 4
  %131 = sext i32 %130 to i64
  %132 = getelementptr inbounds double, double* %129, i64 %131
  %133 = load double, double* %132, align 8
  %134 = load double, double* %13, align 8
  %135 = fcmp oeq double %133, %134
  br i1 %135, label %136, label %148

136:                                              ; preds = %128
  %137 = load i32*, i32** %2, align 8
  %138 = load i32, i32* %5, align 4
  %139 = sext i32 %138 to i64
  %140 = getelementptr inbounds i32, i32* %137, i64 %139
  %141 = load i32, i32* %140, align 4
  %142 = load i32*, i32** %3, align 8
  %143 = load i32, i32* %6, align 4
  %144 = sext i32 %143 to i64
  %145 = getelementptr inbounds i32, i32* %142, i64 %144
  store i32 %141, i32* %145, align 4
  %146 = load i32, i32* %6, align 4
  %147 = add nsw i32 %146, 1
  store i32 %147, i32* %6, align 4
  br label %148

148:                                              ; preds = %136, %128
  br label %149

149:                                              ; preds = %148
  %150 = load i32, i32* %5, align 4
  %151 = add nsw i32 %150, 1
  store i32 %151, i32* %5, align 4
  br label %124

152:                                              ; preds = %124
  %153 = load i32, i32* %6, align 4
  store i32 %153, i32* %8, align 4
  store i32 0, i32* %5, align 4
  br label %154

154:                                              ; preds = %206, %152
  %155 = load i32, i32* %5, align 4
  %156 = load i32, i32* %8, align 4
  %157 = icmp slt i32 %155, %156
  br i1 %157, label %158, label %209

158:                                              ; preds = %154
  %159 = load i32, i32* %5, align 4
  store i32 %159, i32* %7, align 4
  %160 = load i32, i32* %8, align 4
  %161 = sub nsw i32 %160, 1
  store i32 %161, i32* %6, align 4
  br label %162

162:                                              ; preds = %183, %158
  %163 = load i32, i32* %6, align 4
  %164 = load i32, i32* %5, align 4
  %165 = icmp sgt i32 %163, %164
  br i1 %165, label %166, label %186

166:                                              ; preds = %162
  %167 = load i32*, i32** %3, align 8
  %168 = load i32, i32* %6, align 4
  %169 = sext i32 %168 to i64
  %170 = getelementptr inbounds i32, i32* %167, i64 %169
  %171 = load i32, i32* %170, align 4
  %172 = load i32*, i32** %3, align 8
  %173 = load i32, i32* %6, align 4
  %174 = sub nsw i32 %173, 1
  %175 = sext i32 %174 to i64
  %176 = getelementptr inbounds i32, i32* %172, i64 %175
  %177 = load i32, i32* %176, align 4
  %178 = icmp ugt i32 %171, %177
  br i1 %178, label %179, label %182

179:                                              ; preds = %166
  %180 = load i32, i32* %6, align 4
  %181 = sub nsw i32 %180, 1
  store i32 %181, i32* %7, align 4
  br label %182

182:                                              ; preds = %179, %166
  br label %183

183:                                              ; preds = %182
  %184 = load i32, i32* %6, align 4
  %185 = add nsw i32 %184, -1
  store i32 %185, i32* %6, align 4
  br label %162

186:                                              ; preds = %162
  %187 = load i32*, i32** %3, align 8
  %188 = load i32, i32* %5, align 4
  %189 = sext i32 %188 to i64
  %190 = getelementptr inbounds i32, i32* %187, i64 %189
  %191 = load i32, i32* %190, align 4
  store i32 %191, i32* %9, align 4
  %192 = load i32*, i32** %3, align 8
  %193 = load i32, i32* %7, align 4
  %194 = sext i32 %193 to i64
  %195 = getelementptr inbounds i32, i32* %192, i64 %194
  %196 = load i32, i32* %195, align 4
  %197 = load i32*, i32** %3, align 8
  %198 = load i32, i32* %5, align 4
  %199 = sext i32 %198 to i64
  %200 = getelementptr inbounds i32, i32* %197, i64 %199
  store i32 %196, i32* %200, align 4
  %201 = load i32, i32* %9, align 4
  %202 = load i32*, i32** %3, align 8
  %203 = load i32, i32* %7, align 4
  %204 = sext i32 %203 to i64
  %205 = getelementptr inbounds i32, i32* %202, i64 %204
  store i32 %201, i32* %205, align 4
  br label %206

206:                                              ; preds = %186
  %207 = load i32, i32* %5, align 4
  %208 = add nsw i32 %207, 1
  store i32 %208, i32* %5, align 4
  br label %154

209:                                              ; preds = %154
  %210 = load i32*, i32** %3, align 8
  %211 = getelementptr inbounds i32, i32* %210, i64 0
  %212 = load i32, i32* %211, align 4
  %213 = call i32 (i8*, ...) @printf(i8* getelementptr inbounds ([3 x i8], [3 x i8]* @.str.1, i64 0, i64 0), i32 %212)
  store i32 1, i32* %5, align 4
  br label %214

214:                                              ; preds = %226, %209
  %215 = load i32, i32* %5, align 4
  %216 = load i32, i32* %7, align 4
  %217 = add nsw i32 %216, 1
  %218 = icmp slt i32 %215, %217
  br i1 %218, label %219, label %229

219:                                              ; preds = %214
  %220 = load i32*, i32** %3, align 8
  %221 = load i32, i32* %5, align 4
  %222 = sext i32 %221 to i64
  %223 = getelementptr inbounds i32, i32* %220, i64 %222
  %224 = load i32, i32* %223, align 4
  %225 = call i32 (i8*, ...) @printf(i8* getelementptr inbounds ([4 x i8], [4 x i8]* @.str.2, i64 0, i64 0), i32 %224)
  br label %226

226:                                              ; preds = %219
  %227 = load i32, i32* %5, align 4
  %228 = add nsw i32 %227, 1
  store i32 %228, i32* %5, align 4
  br label %214

229:                                              ; preds = %214
  %230 = load i32*, i32** %2, align 8
  %231 = bitcast i32* %230 to i8*
  call void @free(i8* %231) #3
  %232 = load i32*, i32** %3, align 8
  %233 = bitcast i32* %232 to i8*
  call void @free(i8* %233) #3
  %234 = load double*, double** %12, align 8
  %235 = bitcast double* %234 to i8*
  call void @free(i8* %235) #3
  ret i32 0
}